target datalayout = "e-m:e-p270:32:32-p271:32:32-p272:64:64-i64:64-i128:128-f80:128-n8:16:32:64-S128"
target triple = "x86_64-pc-linux-gnu"

%class.AbsSeq = type { ptr, i32, double, double, double, double, double }

; Function Attrs: mustprogress nounwind uwtable
define hidden void @_ZN6AbsSeq3addEd(ptr noundef nonnull align 8 dereferenceable(56) %0, double noundef %1) unnamed_addr #1 align 2 {
  %3 = alloca ptr, align 8
  %4 = alloca double, align 8
  %5 = alloca double, align 8
  %6 = alloca double, align 8
  store ptr %0, ptr %3, align 8
  store double %1, ptr %4, align 8
  %7 = load ptr, ptr %3, align 8
  %8 = getelementptr inbounds %class.AbsSeq, ptr %7, i32 0, i32 1
  %9 = load i32, ptr %8, align 8
  %10 = icmp eq i32 %9, 0
  br i1 %10, label %11, label %15

11:                                               ; preds = %2
  %12 = load double, ptr %4, align 8
  %13 = getelementptr inbounds %class.AbsSeq, ptr %7, i32 0, i32 4
  store double %12, ptr %13, align 8
  %14 = getelementptr inbounds %class.AbsSeq, ptr %7, i32 0, i32 5
  store double 0.000000e+00, ptr %14, align 8
  br label %38

15:                                               ; preds = %2
  %16 = load double, ptr %4, align 8
  %17 = getelementptr inbounds %class.AbsSeq, ptr %7, i32 0, i32 4
  %18 = load double, ptr %17, align 8
  %19 = fsub double %16, %18
  store double %19, ptr %5, align 8
  %20 = getelementptr inbounds %class.AbsSeq, ptr %7, i32 0, i32 6
  %21 = load double, ptr %20, align 8
  %22 = load double, ptr %5, align 8
  %23 = fmul double %21, %22
  store double %23, ptr %6, align 8
  %24 = load double, ptr %6, align 8
  %25 = getelementptr inbounds %class.AbsSeq, ptr %7, i32 0, i32 4
  %26 = load double, ptr %25, align 8
  %27 = fadd double %26, %24
  store double %27, ptr %25, align 8
  %28 = getelementptr inbounds %class.AbsSeq, ptr %7, i32 0, i32 6
  %29 = load double, ptr %28, align 8
  %30 = fsub double 1.000000e+00, %29
  %31 = getelementptr inbounds %class.AbsSeq, ptr %7, i32 0, i32 5
  %32 = load double, ptr %31, align 8
  %33 = load double, ptr %5, align 8
  %34 = load double, ptr %6, align 8
  %35 = call double @llvm.fmuladd.f64(double %33, double %34, double %32)
  %36 = fmul double %30, %35
  %37 = getelementptr inbounds %class.AbsSeq, ptr %7, i32 0, i32 5
  store double %36, ptr %37, align 8
  br label %38

38:                                               ; preds = %15, %11
  ret void
}