; Function Attrs: mustprogress nofree norecurse nosync nounwind willreturn memory(argmem: readwrite) uwtable
define hidden void @_ZN6AbsSeq3addEd(ptr nocapture noundef nonnull align 8 dereferenceable(56) %0, double noundef %1) unnamed_addr #1 align 2 {
  %3 = getelementptr inbounds i8, ptr %0, i64 8
  %4 = load i32, ptr %3, align 8
  %5 = icmp eq i32 %4, 0
  %6 = getelementptr inbounds i8, ptr %0, i64 32
  br i1 %5, label %7, label %9

7:                                                ; preds = %2
  store double %1, ptr %6, align 8
  %8 = getelementptr inbounds i8, ptr %0, i64 40
  store double 0.000000e+00, ptr %8, align 8
  br label %21

9:                                                ; preds = %2
  %10 = load double, ptr %6, align 8
  %11 = fsub double %1, %10
  %12 = getelementptr inbounds i8, ptr %0, i64 48
  %13 = load double, ptr %12, align 8
  %14 = fmul double %13, %11
  %15 = fadd double %10, %14
  store double %15, ptr %6, align 8
  %16 = fsub double 1.000000e+00, %13
  %17 = getelementptr inbounds i8, ptr %0, i64 40
  %18 = load double, ptr %17, align 8
  %19 = tail call double @llvm.fmuladd.f64(double %11, double %14, double %18)
  %20 = fmul double %16, %19
  store double %20, ptr %17, align 8
  br label %21

21:                                               ; preds = %9, %7
  ret void
}